target datalayout = "e-m:e-p270:32:32-p271:32:32-p272:64:64-i64:64-i128:128-f80:128-n8:16:32:64-S128"
target triple = "x86_64-pc-linux-gnu"

%struct.tracemalloc_traceback = type { i64, i16, i16, [1 x %struct.tracemalloc_frame] }
%struct.tracemalloc_frame = type <{ ptr, i32 }>
%struct._object = type { %union.anon.41, ptr }
%union.anon.41 = type { i64 }
%struct.PyVarObject = type { %struct._object, i64 }
%struct.PyTupleObject = type { %struct.PyVarObject, [1 x ptr] }
%struct.anon.42 = type { i32, i32 }

; Function Attrs: alwaysinline nounwind uwtable
define internal i32 @_Py_IsImmortal(ptr noundef %0) #5 {
  %2 = alloca ptr, align 8
  store ptr %0, ptr %2, align 8, !tbaa !191
  %3 = load ptr, ptr %2, align 8, !tbaa !191
  %4 = getelementptr inbounds nuw %struct._object, ptr %3, i32 0, i32 0
  %5 = getelementptr inbounds nuw %struct.anon.42, ptr %4, i32 0, i32 0
  %6 = load i32, ptr %5, align 8, !tbaa !219
  %7 = icmp slt i32 %6, 0
  %8 = zext i1 %7 to i32
  ret i32 %8
}

; Function Attrs: alwaysinline nounwind uwtable
define internal void @Py_INCREF(ptr noundef %0) #5 {
  %2 = alloca ptr, align 8
  %3 = alloca i32, align 4
  %4 = alloca i32, align 4
  store ptr %0, ptr %2, align 8, !tbaa !191
  call void @llvm.lifetime.start.p0(i64 4, ptr %3) #11
  %5 = load ptr, ptr %2, align 8, !tbaa !191
  %6 = getelementptr inbounds nuw %struct._object, ptr %5, i32 0, i32 0
  %7 = getelementptr inbounds nuw %struct.anon.42, ptr %6, i32 0, i32 0
  %8 = load i32, ptr %7, align 8, !tbaa !219
  store i32 %8, ptr %3, align 4, !tbaa !196
  %9 = load i32, ptr %3, align 4, !tbaa !196
  %10 = icmp slt i32 %9, 0
  br i1 %10, label %11, label %12

11:                                               ; preds = %1
  store i32 1, ptr %4, align 4
  br label %18

12:                                               ; preds = %1
  %13 = load i32, ptr %3, align 4, !tbaa !196
  %14 = add i32 %13, 1
  %15 = load ptr, ptr %2, align 8, !tbaa !191
  %16 = getelementptr inbounds nuw %struct._object, ptr %15, i32 0, i32 0
  %17 = getelementptr inbounds nuw %struct.anon.42, ptr %16, i32 0, i32 0
  store i32 %14, ptr %17, align 8, !tbaa !219
  store i32 0, ptr %4, align 4
  br label %18

18:                                               ; preds = %12, %11
  call void @llvm.lifetime.end.p0(i64 4, ptr %3) #11
  %19 = load i32, ptr %4, align 4
  switch i32 %19, label %21 [
    i32 0, label %20
    i32 1, label %20
  ]

20:                                               ; preds = %18, %18
  ret void

21:                                               ; preds = %18
  unreachable
}

; Function Attrs: inlinehint nounwind uwtable
define internal void @PyTuple_SET_ITEM(ptr noundef %0, i64 noundef %1, ptr noundef %2) #4 {
  %4 = alloca ptr, align 8
  %5 = alloca i64, align 8
  %6 = alloca ptr, align 8
  %7 = alloca ptr, align 8
  store ptr %0, ptr %4, align 8, !tbaa !191
  store i64 %1, ptr %5, align 8, !tbaa !203
  store ptr %2, ptr %6, align 8, !tbaa !191
  call void @llvm.lifetime.start.p0(i64 8, ptr %7) #11
  %8 = load ptr, ptr %4, align 8, !tbaa !191
  store ptr %8, ptr %7, align 8, !tbaa !190
  %9 = load ptr, ptr %6, align 8, !tbaa !191
  %10 = load ptr, ptr %7, align 8, !tbaa !190
  %11 = getelementptr inbounds nuw %struct.PyTupleObject, ptr %10, i32 0, i32 1
  %12 = load i64, ptr %5, align 8, !tbaa !203
  %13 = getelementptr [1 x ptr], ptr %11, i64 0, i64 %12
  store ptr %9, ptr %13, align 8, !tbaa !191
  call void @llvm.lifetime.end.p0(i64 8, ptr %7) #11
  ret void
}

; Function Attrs: alwaysinline nounwind uwtable
define internal void @Py_DECREF(ptr noundef %0) #5 {
  %2 = alloca ptr, align 8
  store ptr %0, ptr %2, align 8, !tbaa !191
  %3 = load ptr, ptr %2, align 8, !tbaa !191
  %4 = call i32 @_Py_IsImmortal(ptr noundef %3)
  %5 = icmp ne i32 %4, 0
  br i1 %5, label %6, label %7

6:                                                ; preds = %1
  br label %16

7:                                                ; preds = %1
  %8 = load ptr, ptr %2, align 8, !tbaa !191
  %9 = getelementptr inbounds nuw %struct._object, ptr %8, i32 0, i32 0
  %10 = getelementptr inbounds nuw %struct.anon.42, ptr %9, i32 0, i32 0
  %11 = load i32, ptr %10, align 8, !tbaa !219
  %12 = add i32 %11, -1
  store i32 %12, ptr %10, align 8, !tbaa !219
  %13 = icmp eq i32 %12, 0
  br i1 %13, label %14, label %16

14:                                               ; preds = %7
  %15 = load ptr, ptr %2, align 8, !tbaa !191
  call void @_Py_Dealloc(ptr noundef %15)
  br label %16

16:                                               ; preds = %6, %14, %7
  ret void
}

; Function Attrs: nounwind uwtable
define internal ptr @frame_to_pyobject(ptr noundef %0) #0 {
  %2 = alloca ptr, align 8
  %3 = alloca ptr, align 8
  %4 = alloca ptr, align 8
  %5 = alloca i32, align 4
  %6 = alloca ptr, align 8
  store ptr %0, ptr %3, align 8, !tbaa !197
  call void @llvm.lifetime.start.p0(i64 8, ptr %4) #11
  %7 = call ptr @PyTuple_New(i64 noundef 2)
  store ptr %7, ptr %4, align 8, !tbaa !191
  %8 = load ptr, ptr %4, align 8, !tbaa !191
  %9 = icmp eq ptr %8, null
  br i1 %9, label %10, label %11

10:                                               ; preds = %1
  store ptr null, ptr %2, align 8
  store i32 1, ptr %5, align 4
  br label %31

11:                                               ; preds = %1
  %12 = load ptr, ptr %4, align 8, !tbaa !191
  %13 = load ptr, ptr %3, align 8, !tbaa !197
  %14 = getelementptr inbounds nuw %struct.tracemalloc_frame, ptr %13, i32 0, i32 0
  %15 = load ptr, ptr %14, align 1, !tbaa !185
  %16 = call ptr @_Py_NewRef(ptr noundef %15)
  call void @PyTuple_SET_ITEM(ptr noundef %12, i64 noundef 0, ptr noundef %16)
  call void @llvm.lifetime.start.p0(i64 8, ptr %6) #11
  %17 = load ptr, ptr %3, align 8, !tbaa !197
  %18 = getelementptr inbounds nuw %struct.tracemalloc_frame, ptr %17, i32 0, i32 1
  %19 = load i32, ptr %18, align 1, !tbaa !187
  %20 = zext i32 %19 to i64
  %21 = call ptr @PyLong_FromUnsignedLong(i64 noundef %20)
  store ptr %21, ptr %6, align 8, !tbaa !191
  %22 = load ptr, ptr %6, align 8, !tbaa !191
  %23 = icmp eq ptr %22, null
  br i1 %23, label %24, label %26

24:                                               ; preds = %11
  %25 = load ptr, ptr %4, align 8, !tbaa !191
  call void @Py_DECREF(ptr noundef %25)
  store ptr null, ptr %2, align 8
  store i32 1, ptr %5, align 4
  br label %30

26:                                               ; preds = %11
  %27 = load ptr, ptr %4, align 8, !tbaa !191
  %28 = load ptr, ptr %6, align 8, !tbaa !191
  call void @PyTuple_SET_ITEM(ptr noundef %27, i64 noundef 1, ptr noundef %28)
  %29 = load ptr, ptr %4, align 8, !tbaa !191
  store ptr %29, ptr %2, align 8
  store i32 1, ptr %5, align 4
  br label %30

30:                                               ; preds = %26, %24
  call void @llvm.lifetime.end.p0(i64 8, ptr %6) #11
  br label %31

31:                                               ; preds = %30, %10
  call void @llvm.lifetime.end.p0(i64 8, ptr %4) #11
  %32 = load ptr, ptr %2, align 8
  ret ptr %32
}

; Function Attrs: inlinehint nounwind uwtable
define internal ptr @_Py_NewRef(ptr noundef %0) #4 {
  %2 = alloca ptr, align 8
  store ptr %0, ptr %2, align 8, !tbaa !191
  %3 = load ptr, ptr %2, align 8, !tbaa !191
  call void @Py_INCREF(ptr noundef %3)
  %4 = load ptr, ptr %2, align 8, !tbaa !191
  ret ptr %4
}

; Function Attrs: nounwind uwtable
define internal ptr @traceback_to_pyobject(ptr noundef %0, ptr noundef %1) #0 {
  %3 = alloca ptr, align 8
  %4 = alloca ptr, align 8
  %5 = alloca ptr, align 8
  %6 = alloca ptr, align 8
  %7 = alloca i32, align 4
  %8 = alloca i32, align 4
  %9 = alloca ptr, align 8
  store ptr %0, ptr %4, align 8, !tbaa !192
  store ptr %1, ptr %5, align 8, !tbaa !223
  call void @llvm.lifetime.start.p0(i64 8, ptr %6) #11
  %10 = load ptr, ptr %5, align 8, !tbaa !223
  %11 = icmp ne ptr %10, null
  br i1 %11, label %12, label %22

12:                                               ; preds = %2
  %13 = load ptr, ptr %5, align 8, !tbaa !223
  %14 = load ptr, ptr %4, align 8, !tbaa !192
  %15 = call ptr @_Py_hashtable_get(ptr noundef %13, ptr noundef %14)
  store ptr %15, ptr %6, align 8, !tbaa !191
  %16 = load ptr, ptr %6, align 8, !tbaa !191
  %17 = icmp ne ptr %16, null
  br i1 %17, label %18, label %21

18:                                               ; preds = %12
  %19 = load ptr, ptr %6, align 8, !tbaa !191
  %20 = call ptr @_Py_NewRef(ptr noundef %19)
  store ptr %20, ptr %3, align 8
  store i32 1, ptr %7, align 4
  br label %80

21:                                               ; preds = %12
  br label %22

22:                                               ; preds = %21, %2
  %23 = load ptr, ptr %4, align 8, !tbaa !192
  %24 = getelementptr inbounds nuw %struct.tracemalloc_traceback, ptr %23, i32 0, i32 1
  %25 = load i16, ptr %24, align 8, !tbaa !194
  %26 = zext i16 %25 to i64
  %27 = call ptr @PyTuple_New(i64 noundef %26)
  store ptr %27, ptr %6, align 8, !tbaa !191
  %28 = load ptr, ptr %6, align 8, !tbaa !191
  %29 = icmp eq ptr %28, null
  br i1 %29, label %30, label %31

30:                                               ; preds = %22
  store ptr null, ptr %3, align 8
  store i32 1, ptr %7, align 4
  br label %80

31:                                               ; preds = %22
  call void @llvm.lifetime.start.p0(i64 4, ptr %8) #11
  store i32 0, ptr %8, align 4, !tbaa !196
  br label %32

32:                                               ; preds = %59, %31
  %33 = load i32, ptr %8, align 4, !tbaa !196
  %34 = load ptr, ptr %4, align 8, !tbaa !192
  %35 = getelementptr inbounds nuw %struct.tracemalloc_traceback, ptr %34, i32 0, i32 1
  %36 = load i16, ptr %35, align 8, !tbaa !194
  %37 = zext i16 %36 to i32
  %38 = icmp slt i32 %33, %37
  br i1 %38, label %40, label %39

39:                                               ; preds = %32
  store i32 2, ptr %7, align 4
  br label %62

40:                                               ; preds = %32
  call void @llvm.lifetime.start.p0(i64 8, ptr %9) #11
  %41 = load ptr, ptr %4, align 8, !tbaa !192
  %42 = getelementptr inbounds nuw %struct.tracemalloc_traceback, ptr %41, i32 0, i32 3
  %43 = load i32, ptr %8, align 4, !tbaa !196
  %44 = sext i32 %43 to i64
  %45 = getelementptr [1 x %struct.tracemalloc_frame], ptr %42, i64 0, i64 %44
  %46 = call ptr @frame_to_pyobject(ptr noundef %45)
  store ptr %46, ptr %9, align 8, !tbaa !191
  %47 = load ptr, ptr %9, align 8, !tbaa !191
  %48 = icmp eq ptr %47, null
  br i1 %48, label %49, label %51

49:                                               ; preds = %40
  %50 = load ptr, ptr %6, align 8, !tbaa !191
  call void @Py_DECREF(ptr noundef %50)
  store ptr null, ptr %3, align 8
  store i32 1, ptr %7, align 4
  br label %56

51:                                               ; preds = %40
  %52 = load ptr, ptr %6, align 8, !tbaa !191
  %53 = load i32, ptr %8, align 4, !tbaa !196
  %54 = sext i32 %53 to i64
  %55 = load ptr, ptr %9, align 8, !tbaa !191
  call void @PyTuple_SET_ITEM(ptr noundef %52, i64 noundef %54, ptr noundef %55)
  store i32 0, ptr %7, align 4
  br label %56

56:                                               ; preds = %51, %49
  call void @llvm.lifetime.end.p0(i64 8, ptr %9) #11
  %57 = load i32, ptr %7, align 4
  switch i32 %57, label %62 [
    i32 0, label %58
  ]

58:                                               ; preds = %56
  br label %59

59:                                               ; preds = %58
  %60 = load i32, ptr %8, align 4, !tbaa !196
  %61 = add i32 %60, 1
  store i32 %61, ptr %8, align 4, !tbaa !196
  br label %32, !llvm.loop !225

62:                                               ; preds = %56, %39
  call void @llvm.lifetime.end.p0(i64 4, ptr %8) #11
  %63 = load i32, ptr %7, align 4
  switch i32 %63, label %80 [
    i32 2, label %64
  ]

64:                                               ; preds = %62
  %65 = load ptr, ptr %5, align 8, !tbaa !223
  %66 = icmp ne ptr %65, null
  br i1 %66, label %67, label %78

67:                                               ; preds = %64
  %68 = load ptr, ptr %5, align 8, !tbaa !223
  %69 = load ptr, ptr %4, align 8, !tbaa !192
  %70 = load ptr, ptr %6, align 8, !tbaa !191
  %71 = call i32 @_Py_hashtable_set(ptr noundef %68, ptr noundef %69, ptr noundef %70)
  %72 = icmp slt i32 %71, 0
  br i1 %72, label %73, label %76

73:                                               ; preds = %67
  %74 = load ptr, ptr %6, align 8, !tbaa !191
  call void @Py_DECREF(ptr noundef %74)
  %75 = call ptr @PyErr_NoMemory()
  store ptr null, ptr %3, align 8
  store i32 1, ptr %7, align 4
  br label %80

76:                                               ; preds = %67
  %77 = load ptr, ptr %6, align 8, !tbaa !191
  call void @Py_INCREF(ptr noundef %77)
  br label %78

78:                                               ; preds = %76, %64
  %79 = load ptr, ptr %6, align 8, !tbaa !191
  store ptr %79, ptr %3, align 8
  store i32 1, ptr %7, align 4
  br label %80

80:                                               ; preds = %78, %73, %62, %30, %18
  call void @llvm.lifetime.end.p0(i64 8, ptr %6) #11
  %81 = load ptr, ptr %3, align 8
  ret ptr %81
}