; Function Attrs: nounwind uwtable
define internal fastcc ptr @traceback_to_pyobject(ptr noundef %0, ptr noundef %1) unnamed_addr #0 {
  %.not = icmp eq ptr %1, null
  br i1 %.not, label %10, label %3

3:                                                ; preds = %2
  %4 = tail call ptr @_Py_hashtable_get(ptr noundef nonnull %1, ptr noundef %0) #14
  %.not35 = icmp eq ptr %4, null
  br i1 %.not35, label %10, label %5

5:                                                ; preds = %3
  %6 = load i32, ptr %4, align 8, !tbaa !191
  %7 = icmp slt i32 %6, 0
  br i1 %7, label %_Py_NewRef.exit, label %8

8:                                                ; preds = %5
  %9 = add nuw i32 %6, 1
  store i32 %9, ptr %4, align 8, !tbaa !191
  br label %_Py_NewRef.exit

10:                                               ; preds = %3, %2
  %11 = getelementptr inbounds nuw i8, ptr %0, i64 8
  %12 = load i16, ptr %11, align 8, !tbaa !193
  %13 = zext i16 %12 to i64
  %14 = tail call ptr @PyTuple_New(i64 noundef %13) #14
  %15 = icmp eq ptr %14, null
  br i1 %15, label %_Py_NewRef.exit, label %.preheader

.preheader:                                       ; preds = %10
  %16 = load i16, ptr %11, align 8, !tbaa !193
  %.not3747.not = icmp eq i16 %16, 0
  br i1 %.not3747.not, label %.critedge, label %.lr.ph

.lr.ph:                                           ; preds = %.preheader
  %17 = getelementptr inbounds nuw i8, ptr %0, i64 12
  %18 = getelementptr inbounds nuw i8, ptr %14, i64 24
  br label %19

19:                                               ; preds = %.lr.ph, %46
  %indvars.iv = phi i64 [ 0, %.lr.ph ], [ %indvars.iv.next, %46 ]
  %20 = getelementptr [1 x %struct.tracemalloc_frame], ptr %17, i64 0, i64 %indvars.iv
  %21 = tail call ptr @PyTuple_New(i64 noundef 2) #14
  %22 = icmp eq ptr %21, null
  br i1 %22, label %.loopexit, label %23

23:                                               ; preds = %19
  %24 = load ptr, ptr %20, align 1, !tbaa !185
  %25 = load i32, ptr %24, align 8, !tbaa !191
  %26 = icmp slt i32 %25, 0
  br i1 %26, label %_Py_NewRef.exit.i, label %27

27:                                               ; preds = %23
  %28 = add nuw i32 %25, 1
  store i32 %28, ptr %24, align 8, !tbaa !191
  br label %_Py_NewRef.exit.i

_Py_NewRef.exit.i:                                ; preds = %27, %23
  %29 = getelementptr inbounds nuw i8, ptr %21, i64 24
  store ptr %24, ptr %29, align 8, !tbaa !198
  %30 = getelementptr inbounds nuw i8, ptr %20, i64 8
  %31 = load i32, ptr %30, align 1, !tbaa !187
  %32 = zext i32 %31 to i64
  %33 = tail call ptr @PyLong_FromUnsignedLong(i64 noundef %32) #14
  %34 = icmp eq ptr %33, null
  br i1 %34, label %35, label %46

35:                                               ; preds = %_Py_NewRef.exit.i
  %36 = load i32, ptr %21, align 8, !tbaa !191
  %.not.i.i = icmp sgt i32 %36, -1
  br i1 %.not.i.i, label %37, label %.loopexit

37:                                               ; preds = %35
  %38 = add nsw i32 %36, -1
  store i32 %38, ptr %21, align 8, !tbaa !191
  %39 = icmp eq i32 %38, 0
  br i1 %39, label %40, label %.loopexit

40:                                               ; preds = %37
  tail call void @_Py_Dealloc(ptr noundef nonnull %21) #14
  br label %.loopexit

.loopexit:                                        ; preds = %19, %35, %37, %40
  %41 = load i32, ptr %14, align 8, !tbaa !191
  %.not.i = icmp sgt i32 %41, -1
  br i1 %.not.i, label %42, label %_Py_NewRef.exit

42:                                               ; preds = %.loopexit
  %43 = add nsw i32 %41, -1
  store i32 %43, ptr %14, align 8, !tbaa !191
  %44 = icmp eq i32 %43, 0
  br i1 %44, label %45, label %_Py_NewRef.exit

45:                                               ; preds = %42
  tail call void @_Py_Dealloc(ptr noundef nonnull %14) #14
  br label %_Py_NewRef.exit

46:                                               ; preds = %_Py_NewRef.exit.i
  %47 = getelementptr i8, ptr %21, i64 32
  store ptr %33, ptr %47, align 8, !tbaa !198
  %48 = getelementptr [1 x ptr], ptr %18, i64 0, i64 %indvars.iv
  store ptr %21, ptr %48, align 8, !tbaa !198
  %indvars.iv.next = add nuw nsw i64 %indvars.iv, 1
  %49 = load i16, ptr %11, align 8, !tbaa !193
  %50 = zext i16 %49 to i64
  %.not37 = icmp samesign ult i64 %indvars.iv.next, %50
  br i1 %.not37, label %19, label %.critedge, !llvm.loop !220

.critedge:                                        ; preds = %46, %.preheader
  br i1 %.not, label %_Py_NewRef.exit, label %51

51:                                               ; preds = %.critedge
  %52 = tail call i32 @_Py_hashtable_set(ptr noundef nonnull %1, ptr noundef nonnull %0, ptr noundef nonnull %14) #14
  %53 = icmp slt i32 %52, 0
  %54 = load i32, ptr %14, align 8, !tbaa !191
  br i1 %53, label %55, label %61

55:                                               ; preds = %51
  %.not.i38 = icmp sgt i32 %54, -1
  br i1 %.not.i38, label %56, label %Py_DECREF.exit39

56:                                               ; preds = %55
  %57 = add nsw i32 %54, -1
  store i32 %57, ptr %14, align 8, !tbaa !191
  %58 = icmp eq i32 %57, 0
  br i1 %58, label %59, label %Py_DECREF.exit39

59:                                               ; preds = %56
  tail call void @_Py_Dealloc(ptr noundef nonnull %14) #14
  br label %Py_DECREF.exit39

Py_DECREF.exit39:                                 ; preds = %55, %56, %59
  %60 = tail call ptr @PyErr_NoMemory() #14
  br label %_Py_NewRef.exit

61:                                               ; preds = %51
  %62 = icmp slt i32 %54, 0
  br i1 %62, label %_Py_NewRef.exit, label %63

63:                                               ; preds = %61
  %64 = add nuw i32 %54, 1
  store i32 %64, ptr %14, align 8, !tbaa !191
  br label %_Py_NewRef.exit

_Py_NewRef.exit:                                  ; preds = %63, %61, %45, %42, %.loopexit, %8, %5, %.critedge, %10, %Py_DECREF.exit39
  %.0 = phi ptr [ null, %Py_DECREF.exit39 ], [ null, %10 ], [ %14, %.critedge ], [ %4, %5 ], [ %4, %8 ], [ null, %.loopexit ], [ null, %42 ], [ null, %45 ], [ %14, %61 ], [ %14, %63 ]
  ret ptr %.0
}